target datalayout = "e-m:e-p270:32:32-p271:32:32-p272:64:64-i64:64-i128:128-f80:128-n8:16:32:64-S128"
target triple = "x86_64-unknown-linux-gnu"

%"struct.facebook::velox::StlAllocator" = type { ptr }
%"struct.facebook::velox::StlAllocator.2" = type { ptr }
%"class.facebook::velox::common::hll::DenseHll" = type { i8, i8, i32, %"class.std::vector", i16, %"class.std::vector.0", %"class.std::vector" }
%"class.std::vector.0" = type { %"struct.std::_Vector_base.1" }
%"struct.std::_Vector_base.1" = type { %"struct.std::_Vector_base<unsigned short, facebook::velox::StlAllocator<unsigned short>>::_Vector_impl" }
%"struct.std::_Vector_base<unsigned short, facebook::velox::StlAllocator<unsigned short>>::_Vector_impl" = type { %"struct.facebook::velox::StlAllocator.2", %"struct.std::_Vector_base<unsigned short, facebook::velox::StlAllocator<unsigned short>>::_Vector_impl_data" }
%"struct.std::_Vector_base<unsigned short, facebook::velox::StlAllocator<unsigned short>>::_Vector_impl_data" = type { ptr, ptr, ptr }
%"class.std::vector" = type { %"struct.std::_Vector_base" }
%"struct.std::_Vector_base" = type { %"struct.std::_Vector_base<signed char, facebook::velox::StlAllocator<signed char>>::_Vector_impl" }
%"struct.std::_Vector_base<signed char, facebook::velox::StlAllocator<signed char>>::_Vector_impl" = type { %"struct.facebook::velox::StlAllocator", %"struct.std::_Vector_base<signed char, facebook::velox::StlAllocator<signed char>>::_Vector_impl_data" }
%"struct.std::_Vector_base<signed char, facebook::velox::StlAllocator<signed char>>::_Vector_impl_data" = type { ptr, ptr, ptr }

; Function Attrs: mustprogress nounwind uwtable
define internal noundef signext i8 @_ZN8facebook5velox6common3hll12_GLOBAL__N_114shiftForBucketEi(i32 noundef %index) #1 {
entry:
  %index.addr = alloca i32, align 4
  store i32 %index, ptr %index.addr, align 4
  %0 = load i32, ptr %index.addr, align 4
  %not = xor i32 %0, -1
  %and = and i32 %not, 1
  %shl = shl i32 %and, 2
  %conv = trunc i32 %shl to i8
  ret i8 %conv
}

; Function Attrs: mustprogress nounwind uwtable
define linkonce_odr noundef nonnull align 1 dereferenceable(1) ptr @_ZNKSt6vectorIaN8facebook5velox12StlAllocatorIaEEEixEm(ptr noundef nonnull align 8 dereferenceable(32) %this, i64 noundef %__n) #1 comdat align 2 {
entry:
  %this.addr = alloca ptr, align 8
  %__n.addr = alloca i64, align 8
  store ptr %this, ptr %this.addr, align 8
  store i64 %__n, ptr %__n.addr, align 8
  %this1 = load ptr, ptr %this.addr, align 8
  %_M_impl = getelementptr inbounds %"struct.std::_Vector_base", ptr %this1, i32 0, i32 0
  %add.ptr = getelementptr inbounds i8, ptr %_M_impl, i64 8
  %_M_start = getelementptr inbounds %"struct.std::_Vector_base<signed char, facebook::velox::StlAllocator<signed char>>::_Vector_impl_data", ptr %add.ptr, i32 0, i32 0
  %0 = load ptr, ptr %_M_start, align 8
  %1 = load i64, ptr %__n.addr, align 8
  %add.ptr2 = getelementptr inbounds i8, ptr %0, i64 %1
  ret ptr %add.ptr2
}

; Function Attrs: mustprogress uwtable
define noundef signext i8 @_ZNK8facebook5velox6common3hll8DenseHll8getDeltaEi(ptr noundef nonnull align 8 dereferenceable(112) %this, i32 noundef %index) #0 align 2 {
entry:
  %this.addr = alloca ptr, align 8
  %index.addr = alloca i32, align 4
  %slot = alloca i32, align 4
  store ptr %this, ptr %this.addr, align 8
  store i32 %index, ptr %index.addr, align 4
  %this1 = load ptr, ptr %this.addr, align 8
  %0 = load i32, ptr %index.addr, align 4
  %shr = ashr i32 %0, 1
  store i32 %shr, ptr %slot, align 4
  %deltas_ = getelementptr inbounds %"class.facebook::velox::common::hll::DenseHll", ptr %this1, i32 0, i32 3
  %1 = load i32, ptr %slot, align 4
  %conv = sext i32 %1 to i64
  %call = call noundef nonnull align 1 dereferenceable(1) ptr @_ZNKSt6vectorIaN8facebook5velox12StlAllocatorIaEEEixEm(ptr noundef nonnull align 8 dereferenceable(32) %deltas_, i64 noundef %conv) #9
  %2 = load i8, ptr %call, align 1
  %conv2 = sext i8 %2 to i32
  %3 = load i32, ptr %index.addr, align 4
  %call3 = call noundef signext i8 @_ZN8facebook5velox6common3hll12_GLOBAL__N_114shiftForBucketEi(i32 noundef %3)
  %conv4 = sext i8 %call3 to i32
  %shr5 = ashr i32 %conv2, %conv4
  %and = and i32 %shr5, 15
  %conv6 = trunc i32 %and to i8
  ret i8 %conv6
}