; Function Attrs: mustprogress nofree norecurse nosync nounwind willreturn memory(read, inaccessiblemem: none) uwtable
define noundef signext range(i8 0, 16) i8 @_ZNK8facebook5velox6common3hll8DenseHll8getDeltaEi(ptr noundef nonnull readonly align 8 captures(none) dereferenceable(112) %this, i32 noundef %index) local_unnamed_addr #3 align 2 {
entry:
  %shr = ashr i32 %index, 1
  %conv = sext i32 %shr to i64
  %add.ptr.i = getelementptr inbounds nuw i8, ptr %this, i64 16
  %0 = load ptr, ptr %add.ptr.i, align 8
  %add.ptr2.i = getelementptr inbounds i8, ptr %0, i64 %conv
  %1 = load i8, ptr %add.ptr2.i, align 1
  %index.tr.i = trunc i32 %index to i8
  %2 = shl i8 %index.tr.i, 2
  %3 = and i8 %2, 4
  %conv.i = xor i8 %3, 4
  %shr5 = ashr i8 %1, %conv.i
  %and = and i8 %shr5, 15
  ret i8 %and
}